target datalayout = "e-m:e-p270:32:32-p271:32:32-p272:64:64-i64:64-i128:128-f80:128-n8:16:32:64-S128"
target triple = "x86_64-pc-linux-gnu"

%struct.slurm_conf_t = type { i64, ptr, i16, ptr, ptr, ptr, ptr, ptr, i16, ptr, ptr, ptr, ptr, ptr, ptr, ptr, i16, ptr, ptr, ptr, ptr, i16, ptr, ptr, ptr, i64, ptr, ptr, ptr, ptr, i16, ptr, ptr, i16, i32, ptr, i32, ptr, i32, i32, ptr, ptr, i64, i64, ptr, i16, i16, ptr, i32, i32, ptr, i32, ptr, i32, i16, i16, i16, ptr, i16, i16, ptr, ptr, i32, i16, i16, ptr, i32, i16, ptr, ptr, ptr, ptr, i16, ptr, ptr, ptr, ptr, i32, ptr, ptr, ptr, ptr, i16, i16, ptr, i32, i32, i32, i16, i16, ptr, ptr, i16, ptr, ptr, i32, i32, i32, i32, i32, i64, i32, i32, i16, ptr, ptr, i32, ptr, ptr, ptr, i16, i32, ptr, ptr, i16, ptr, ptr, i32, i16, ptr, ptr, ptr, ptr, i32, i32, i16, i16, i32, ptr, i16, ptr, i32, i32, i32, i32, i32, i32, ptr, i16, ptr, ptr, i32, i16, ptr, i32, i16, i16, ptr, ptr, ptr, i16, ptr, ptr, ptr, ptr, i16, i16, ptr, i16, ptr, i16, ptr, i16, ptr, i16, ptr, ptr, ptr, ptr, i16, ptr, ptr, ptr, i32, ptr, i32, ptr, ptr, i16, ptr, ptr, i32, i16, ptr, ptr, i16, i16, ptr, i16, ptr, ptr, ptr, i32, ptr, i16, i16, ptr, ptr, ptr, ptr, ptr, ptr, ptr, ptr, i16, i32, i16, ptr, ptr, ptr, ptr, i32, ptr, ptr, ptr, i16, ptr, ptr, ptr, i16, ptr, i16, ptr, i16, i16, ptr }
%struct.sockaddr_storage = type { i16, [118 x i8], i64 }
%struct.forward = type { %struct.slurm_node_alias_addrs_t, i16, i16, ptr, i32, i16, i16 }
%struct.slurm_node_alias_addrs_t = type { i64, ptr, ptr, i32, ptr }
%struct.slurm_msg = type { %struct.sockaddr_storage, ptr, i32, i32, i32, i8, i32, i8, i32, ptr, ptr, i32, ptr, ptr, i16, i8, i16, i16, %struct.forward, ptr, %struct.sockaddr_storage, ptr }
%struct.persist_conn_t = type { ptr, i32, i32, i8, ptr, ptr, ptr, i64, i16, i32, i16, i8, i32, i32, ptr, i16, ptr, i64, i32, ptr, %struct.slurm_trigger_callbacks_t, i16 }
%struct.slurm_trigger_callbacks_t = type { ptr, ptr, ptr, ptr, ptr }

@slurm_conf = external global %struct.slurm_conf_t, align 8
@.str.50 = private unnamed_addr constant [48 x i8] c"NET: %s: [%s] write response RPC %s failure: %s\00", align 1
@__func__.send_msg_response = private unnamed_addr constant [18 x i8] c"send_msg_response\00", align 1
@.str.51 = private unnamed_addr constant [50 x i8] c"NET: %s: [fd:%d] write response RPC %s failed: %s\00", align 1

; Function Attrs: nounwind uwtable
define dso_local void @slurm_msg_set_r_uid(ptr noundef %0, i32 noundef %1) #0 {
  %3 = alloca ptr, align 8
  %4 = alloca i32, align 4
  store ptr %0, ptr %3, align 8
  store i32 %1, ptr %4, align 4
  %5 = load i32, ptr %4, align 4
  %6 = load ptr, ptr %3, align 8
  %7 = getelementptr inbounds nuw %struct.slurm_msg, ptr %6, i32 0, i32 6
  store i32 %5, ptr %7, align 8
  %8 = load ptr, ptr %3, align 8
  %9 = getelementptr inbounds nuw %struct.slurm_msg, ptr %8, i32 0, i32 7
  store i8 1, ptr %9, align 4
  ret void
}

; Function Attrs: nounwind uwtable
define internal void @_response_init(ptr noundef %0, ptr noundef %1, i16 noundef zeroext %2, ptr noundef %3) #0 {
  %5 = alloca ptr, align 8
  %6 = alloca ptr, align 8
  %7 = alloca i16, align 2
  %8 = alloca ptr, align 8
  store ptr %0, ptr %5, align 8
  store ptr %1, ptr %6, align 8
  store i16 %2, ptr %7, align 2
  store ptr %3, ptr %8, align 8
  %9 = load ptr, ptr %5, align 8
  call void @slurm_msg_t_init(ptr noundef %9)
  %10 = load ptr, ptr %5, align 8
  %11 = getelementptr inbounds nuw %struct.slurm_msg, ptr %10, i32 0, i32 0
  %12 = load ptr, ptr %6, align 8
  %13 = getelementptr inbounds nuw %struct.slurm_msg, ptr %12, i32 0, i32 0
  call void @llvm.memcpy.p0.p0.i64(ptr align 8 %11, ptr align 8 %13, i64 128, i1 false)
  %14 = load ptr, ptr %6, align 8
  %15 = getelementptr inbounds nuw %struct.slurm_msg, ptr %14, i32 0, i32 2
  %16 = load i32, ptr %15, align 8
  %17 = load ptr, ptr %5, align 8
  %18 = getelementptr inbounds nuw %struct.slurm_msg, ptr %17, i32 0, i32 2
  store i32 %16, ptr %18, align 8
  %19 = load ptr, ptr %6, align 8
  %20 = getelementptr inbounds nuw %struct.slurm_msg, ptr %19, i32 0, i32 10
  %21 = load ptr, ptr %20, align 8
  %22 = load ptr, ptr %5, align 8
  %23 = getelementptr inbounds nuw %struct.slurm_msg, ptr %22, i32 0, i32 10
  store ptr %21, ptr %23, align 8
  %24 = load ptr, ptr %8, align 8
  %25 = load ptr, ptr %5, align 8
  %26 = getelementptr inbounds nuw %struct.slurm_msg, ptr %25, i32 0, i32 13
  store ptr %24, ptr %26, align 8
  %27 = load ptr, ptr %6, align 8
  %28 = getelementptr inbounds nuw %struct.slurm_msg, ptr %27, i32 0, i32 14
  %29 = load i16, ptr %28, align 8
  %30 = load ptr, ptr %5, align 8
  %31 = getelementptr inbounds nuw %struct.slurm_msg, ptr %30, i32 0, i32 14
  store i16 %29, ptr %31, align 8
  %32 = load ptr, ptr %5, align 8
  %33 = getelementptr inbounds nuw %struct.slurm_msg, ptr %32, i32 0, i32 18
  %34 = load ptr, ptr %6, align 8
  %35 = getelementptr inbounds nuw %struct.slurm_msg, ptr %34, i32 0, i32 18
  call void @llvm.memcpy.p0.p0.i64(ptr align 8 %33, ptr align 8 %35, i64 64, i1 false)
  %36 = load ptr, ptr %6, align 8
  %37 = getelementptr inbounds nuw %struct.slurm_msg, ptr %36, i32 0, i32 19
  %38 = load ptr, ptr %37, align 8
  %39 = load ptr, ptr %5, align 8
  %40 = getelementptr inbounds nuw %struct.slurm_msg, ptr %39, i32 0, i32 19
  store ptr %38, ptr %40, align 8
  %41 = load ptr, ptr %6, align 8
  %42 = getelementptr inbounds nuw %struct.slurm_msg, ptr %41, i32 0, i32 15
  %43 = load i8, ptr %42, align 2
  %44 = load ptr, ptr %5, align 8
  %45 = getelementptr inbounds nuw %struct.slurm_msg, ptr %44, i32 0, i32 15
  store i8 %43, ptr %45, align 2
  %46 = load i16, ptr %7, align 2
  %47 = load ptr, ptr %5, align 8
  %48 = getelementptr inbounds nuw %struct.slurm_msg, ptr %47, i32 0, i32 16
  store i16 %46, ptr %48, align 4
  %49 = load ptr, ptr %6, align 8
  %50 = getelementptr inbounds nuw %struct.slurm_msg, ptr %49, i32 0, i32 17
  %51 = load i16, ptr %50, align 2
  %52 = load ptr, ptr %5, align 8
  %53 = getelementptr inbounds nuw %struct.slurm_msg, ptr %52, i32 0, i32 17
  store i16 %51, ptr %53, align 2
  %54 = load ptr, ptr %6, align 8
  %55 = getelementptr inbounds nuw %struct.slurm_msg, ptr %54, i32 0, i32 21
  %56 = load ptr, ptr %55, align 8
  %57 = load ptr, ptr %5, align 8
  %58 = getelementptr inbounds nuw %struct.slurm_msg, ptr %57, i32 0, i32 21
  store ptr %56, ptr %58, align 8
  %59 = load ptr, ptr %5, align 8
  %60 = getelementptr inbounds nuw %struct.slurm_msg, ptr %59, i32 0, i32 20
  %61 = load ptr, ptr %6, align 8
  %62 = getelementptr inbounds nuw %struct.slurm_msg, ptr %61, i32 0, i32 20
  call void @llvm.memcpy.p0.p0.i64(ptr align 8 %60, ptr align 8 %62, i64 128, i1 false)
  %63 = load ptr, ptr %6, align 8
  %64 = getelementptr inbounds nuw %struct.slurm_msg, ptr %63, i32 0, i32 5
  %65 = load i8, ptr %64, align 4, !range !16, !noundef !17
  %66 = trunc i8 %65 to i1
  br i1 %66, label %69, label %67

67:                                               ; preds = %4
  %68 = load ptr, ptr %5, align 8
  call void @slurm_msg_set_r_uid(ptr noundef %68, i32 noundef 99)
  br label %89

69:                                               ; preds = %4
  %70 = load ptr, ptr %6, align 8
  %71 = getelementptr inbounds nuw %struct.slurm_msg, ptr %70, i32 0, i32 3
  %72 = load i32, ptr %71, align 4
  %73 = load i32, ptr getelementptr inbounds nuw (%struct.slurm_conf_t, ptr @slurm_conf, i32 0, i32 173), align 8
  %74 = icmp ne i32 %72, %73
  br i1 %74, label %75, label %86

75:                                               ; preds = %69
  %76 = load ptr, ptr %6, align 8
  %77 = getelementptr inbounds nuw %struct.slurm_msg, ptr %76, i32 0, i32 3
  %78 = load i32, ptr %77, align 4
  %79 = load i32, ptr getelementptr inbounds nuw (%struct.slurm_conf_t, ptr @slurm_conf, i32 0, i32 175), align 8
  %80 = icmp ne i32 %78, %79
  br i1 %80, label %81, label %86

81:                                               ; preds = %75
  %82 = load ptr, ptr %5, align 8
  %83 = load ptr, ptr %6, align 8
  %84 = getelementptr inbounds nuw %struct.slurm_msg, ptr %83, i32 0, i32 3
  %85 = load i32, ptr %84, align 4
  call void @slurm_msg_set_r_uid(ptr noundef %82, i32 noundef %85)
  br label %88

86:                                               ; preds = %75, %69
  %87 = load ptr, ptr %5, align 8
  call void @slurm_msg_set_r_uid(ptr noundef %87, i32 noundef -1)
  br label %88

88:                                               ; preds = %86, %81
  br label %89

89:                                               ; preds = %88, %67
  %90 = load ptr, ptr %5, align 8
  %91 = getelementptr inbounds nuw %struct.slurm_msg, ptr %90, i32 0, i32 14
  %92 = load i16, ptr %91, align 8
  %93 = zext i16 %92 to i64
  %94 = or i64 %93, 64
  %95 = trunc i64 %94 to i16
  store i16 %95, ptr %91, align 8
  ret void
}

; Function Attrs: nounwind uwtable
define dso_local i32 @send_msg_response(ptr noundef %0, i32 noundef %1, ptr noundef %2) #0 {
  %4 = alloca i32, align 4
  %5 = alloca ptr, align 8
  %6 = alloca i32, align 4
  %7 = alloca ptr, align 8
  %8 = alloca i32, align 4
  %9 = alloca %struct.slurm_msg, align 8
  %10 = alloca i32, align 4
  store ptr %0, ptr %5, align 8
  store i32 %1, ptr %6, align 4
  store ptr %2, ptr %7, align 8
  call void @llvm.lifetime.start.p0(i64 4, ptr %8) #12
  call void @llvm.lifetime.start.p0(i64 424, ptr %9) #12
  %11 = load ptr, ptr %5, align 8
  %12 = getelementptr inbounds nuw %struct.slurm_msg, ptr %11, i32 0, i32 11
  %13 = load i32, ptr %12, align 8
  %14 = icmp slt i32 %13, 0
  br i1 %14, label %15, label %26

15:                                               ; preds = %3
  %16 = load ptr, ptr %5, align 8
  %17 = getelementptr inbounds nuw %struct.slurm_msg, ptr %16, i32 0, i32 10
  %18 = load ptr, ptr %17, align 8
  %19 = icmp ne ptr %18, null
  br i1 %19, label %26, label %20

20:                                               ; preds = %15
  %21 = load ptr, ptr %5, align 8
  %22 = getelementptr inbounds nuw %struct.slurm_msg, ptr %21, i32 0, i32 12
  %23 = load ptr, ptr %22, align 8
  %24 = icmp ne ptr %23, null
  br i1 %24, label %26, label %25

25:                                               ; preds = %20
  store i32 107, ptr %4, align 4
  store i32 1, ptr %10, align 4
  br label %125

26:                                               ; preds = %20, %15, %3
  %27 = load ptr, ptr %5, align 8
  %28 = load i32, ptr %6, align 4
  %29 = trunc i32 %28 to i16
  %30 = load ptr, ptr %7, align 8
  call void @_response_init(ptr noundef %9, ptr noundef %27, i16 noundef zeroext %29, ptr noundef %30)
  %31 = load ptr, ptr %5, align 8
  %32 = getelementptr inbounds nuw %struct.slurm_msg, ptr %31, i32 0, i32 12
  %33 = load ptr, ptr %32, align 8
  %34 = icmp ne ptr %33, null
  br i1 %34, label %35, label %69

35:                                               ; preds = %26
  %36 = load ptr, ptr %5, align 8
  %37 = getelementptr inbounds nuw %struct.slurm_msg, ptr %36, i32 0, i32 12
  %38 = load ptr, ptr %37, align 8
  %39 = call i32 @conmgr_queue_write_msg(ptr noundef %38, ptr noundef %9)
  store i32 %39, ptr %8, align 4
  %40 = load i32, ptr %8, align 4
  %41 = icmp ne i32 %40, 0
  br i1 %41, label %42, label %67

42:                                               ; preds = %35
  br label %43

43:                                               ; preds = %42
  %44 = load i64, ptr getelementptr inbounds nuw (%struct.slurm_conf_t, ptr @slurm_conf, i32 0, i32 42), align 8
  %45 = and i64 %44, 1024
  %46 = icmp ne i64 %45, 0
  br i1 %46, label %47, label %64

47:                                               ; preds = %43
  br label %48

48:                                               ; preds = %47
  %49 = call i32 @get_log_level()
  %50 = icmp sge i32 %49, 4
  br i1 %50, label %51, label %61

51:                                               ; preds = %48
  %52 = load ptr, ptr %5, align 8
  %53 = getelementptr inbounds nuw %struct.slurm_msg, ptr %52, i32 0, i32 12
  %54 = load ptr, ptr %53, align 8
  %55 = call ptr @conmgr_fd_get_name(ptr noundef %54)
  %56 = load i32, ptr %6, align 4
  %57 = trunc i32 %56 to i16
  %58 = call ptr @rpc_num2string(i16 noundef zeroext %57)
  %59 = load i32, ptr %8, align 4
  %60 = call ptr @slurm_strerror(i32 noundef %59)
  call void (i32, ptr, ...) @log_var(i32 noundef 4, ptr noundef @.str.50, ptr noundef @__func__.send_msg_response, ptr noundef %55, ptr noundef %58, ptr noundef %60)
  br label %61

61:                                               ; preds = %51, %48
  br label %62

62:                                               ; preds = %61
  br label %63

63:                                               ; preds = %62
  br label %64

64:                                               ; preds = %63, %43
  br label %65

65:                                               ; preds = %64
  br label %66

66:                                               ; preds = %65
  br label %67

67:                                               ; preds = %66, %35
  %68 = load i32, ptr %8, align 4
  store i32 %68, ptr %4, align 4
  store i32 1, ptr %10, align 4
  br label %125

69:                                               ; preds = %26
  %70 = load ptr, ptr %5, align 8
  %71 = getelementptr inbounds nuw %struct.slurm_msg, ptr %70, i32 0, i32 11
  %72 = load i32, ptr %71, align 8
  %73 = getelementptr inbounds nuw %struct.slurm_msg, ptr %9, i32 0, i32 11
  store i32 %72, ptr %73, align 8
  %74 = load ptr, ptr %5, align 8
  %75 = getelementptr inbounds nuw %struct.slurm_msg, ptr %74, i32 0, i32 10
  %76 = load ptr, ptr %75, align 8
  %77 = getelementptr inbounds nuw %struct.slurm_msg, ptr %9, i32 0, i32 10
  store ptr %76, ptr %77, align 8
  %78 = load ptr, ptr %5, align 8
  %79 = getelementptr inbounds nuw %struct.slurm_msg, ptr %78, i32 0, i32 11
  %80 = load i32, ptr %79, align 8
  %81 = call i32 @slurm_send_node_msg(i32 noundef %80, ptr noundef %9)
  store i32 %81, ptr %8, align 4
  %82 = load i32, ptr %8, align 4
  %83 = icmp sge i32 %82, 0
  br i1 %83, label %84, label %85

84:                                               ; preds = %69
  store i32 0, ptr %4, align 4
  store i32 1, ptr %10, align 4
  br label %125

85:                                               ; preds = %69
  %86 = call ptr @__errno_location() #14
  %87 = load i32, ptr %86, align 4
  store i32 %87, ptr %8, align 4
  br label %88

88:                                               ; preds = %85
  %89 = load i64, ptr getelementptr inbounds nuw (%struct.slurm_conf_t, ptr @slurm_conf, i32 0, i32 42), align 8
  %90 = and i64 %89, 1024
  %91 = icmp ne i64 %90, 0
  br i1 %91, label %92, label %121

92:                                               ; preds = %88
  br label %93

93:                                               ; preds = %92
  %94 = call i32 @get_log_level()
  %95 = icmp sge i32 %94, 4
  br i1 %95, label %96, label %118

96:                                               ; preds = %93
  %97 = load ptr, ptr %5, align 8
  %98 = getelementptr inbounds nuw %struct.slurm_msg, ptr %97, i32 0, i32 10
  %99 = load ptr, ptr %98, align 8
  %100 = icmp ne ptr %99, null
  br i1 %100, label %101, label %107

101:                                              ; preds = %96
  %102 = load ptr, ptr %5, align 8
  %103 = getelementptr inbounds nuw %struct.slurm_msg, ptr %102, i32 0, i32 10
  %104 = load ptr, ptr %103, align 8
  %105 = getelementptr inbounds nuw %struct.persist_conn_t, ptr %104, i32 0, i32 9
  %106 = load i32, ptr %105, align 4
  br label %111

107:                                              ; preds = %96
  %108 = load ptr, ptr %5, align 8
  %109 = getelementptr inbounds nuw %struct.slurm_msg, ptr %108, i32 0, i32 11
  %110 = load i32, ptr %109, align 8
  br label %111

111:                                              ; preds = %107, %101
  %112 = phi i32 [ %106, %101 ], [ %110, %107 ]
  %113 = load i32, ptr %6, align 4
  %114 = trunc i32 %113 to i16
  %115 = call ptr @rpc_num2string(i16 noundef zeroext %114)
  %116 = load i32, ptr %8, align 4
  %117 = call ptr @slurm_strerror(i32 noundef %116)
  call void (i32, ptr, ...) @log_var(i32 noundef 4, ptr noundef @.str.51, ptr noundef @__func__.send_msg_response, i32 noundef %112, ptr noundef %115, ptr noundef %117)
  br label %118

118:                                              ; preds = %111, %93
  br label %119

119:                                              ; preds = %118
  br label %120

120:                                              ; preds = %119
  br label %121

121:                                              ; preds = %120, %88
  br label %122

122:                                              ; preds = %121
  br label %123

123:                                              ; preds = %122
  %124 = load i32, ptr %8, align 4
  store i32 %124, ptr %4, align 4
  store i32 1, ptr %10, align 4
  br label %125

125:                                              ; preds = %123, %84, %67, %25
  call void @llvm.lifetime.end.p0(i64 424, ptr %9) #12
  call void @llvm.lifetime.end.p0(i64 4, ptr %8) #12
  %126 = load i32, ptr %4, align 4
  ret i32 %126
}