; Function Attrs: nounwind uwtable
define dso_local i32 @send_msg_response(ptr noundef readonly captures(none) %0, i32 noundef %1, ptr noundef %2) local_unnamed_addr #1 {
  %4 = alloca %struct.slurm_msg, align 8
  call void @llvm.lifetime.start.p0(i64 424, ptr nonnull %4) #19
  %5 = getelementptr inbounds nuw i8, ptr %0, i64 184
  %6 = load i32, ptr %5, align 8
  %7 = icmp slt i32 %6, 0
  br i1 %7, label %8, label %14

8:                                                ; preds = %3
  %9 = getelementptr inbounds nuw i8, ptr %0, i64 176
  %10 = load ptr, ptr %9, align 8
  %.not = icmp eq ptr %10, null
  br i1 %.not, label %11, label %14

11:                                               ; preds = %8
  %12 = getelementptr inbounds nuw i8, ptr %0, i64 192
  %13 = load ptr, ptr %12, align 8
  %.not26 = icmp eq ptr %13, null
  br i1 %.not26, label %93, label %14

14:                                               ; preds = %11, %8, %3
  %15 = trunc i32 %1 to i16
  call void @slurm_msg_t_init(ptr noundef nonnull %4) #19
  call void @llvm.memcpy.p0.p0.i64(ptr noundef nonnull align 8 dereferenceable(128) %4, ptr noundef nonnull readonly align 8 dereferenceable(128) %0, i64 128, i1 false)
  %16 = getelementptr inbounds nuw i8, ptr %0, i64 136
  %17 = load i32, ptr %16, align 8
  %18 = getelementptr inbounds nuw i8, ptr %4, i64 136
  store i32 %17, ptr %18, align 8
  %19 = getelementptr inbounds nuw i8, ptr %0, i64 176
  %20 = load ptr, ptr %19, align 8
  %21 = getelementptr inbounds nuw i8, ptr %4, i64 176
  store ptr %20, ptr %21, align 8
  %22 = getelementptr inbounds nuw i8, ptr %4, i64 200
  store ptr %2, ptr %22, align 8
  %23 = getelementptr inbounds nuw i8, ptr %0, i64 208
  %24 = load i16, ptr %23, align 8
  %25 = getelementptr inbounds nuw i8, ptr %4, i64 208
  %26 = getelementptr inbounds nuw i8, ptr %4, i64 216
  %27 = getelementptr inbounds nuw i8, ptr %0, i64 216
  call void @llvm.memcpy.p0.p0.i64(ptr noundef nonnull align 8 dereferenceable(64) %26, ptr noundef nonnull readonly align 8 dereferenceable(64) %27, i64 64, i1 false)
  %28 = getelementptr inbounds nuw i8, ptr %0, i64 280
  %29 = load ptr, ptr %28, align 8
  %30 = getelementptr inbounds nuw i8, ptr %4, i64 280
  store ptr %29, ptr %30, align 8
  %31 = getelementptr inbounds nuw i8, ptr %0, i64 210
  %32 = load i8, ptr %31, align 2
  %33 = getelementptr inbounds nuw i8, ptr %4, i64 210
  store i8 %32, ptr %33, align 2
  %34 = getelementptr inbounds nuw i8, ptr %4, i64 212
  store i16 %15, ptr %34, align 4
  %35 = getelementptr inbounds nuw i8, ptr %0, i64 214
  %36 = load i16, ptr %35, align 2
  %37 = getelementptr inbounds nuw i8, ptr %4, i64 214
  store i16 %36, ptr %37, align 2
  %38 = getelementptr inbounds nuw i8, ptr %0, i64 416
  %39 = load ptr, ptr %38, align 8
  %40 = getelementptr inbounds nuw i8, ptr %4, i64 416
  store ptr %39, ptr %40, align 8
  %41 = getelementptr inbounds nuw i8, ptr %4, i64 288
  %42 = getelementptr inbounds nuw i8, ptr %0, i64 288
  call void @llvm.memcpy.p0.p0.i64(ptr noundef nonnull align 8 dereferenceable(128) %41, ptr noundef nonnull readonly align 8 dereferenceable(128) %42, i64 128, i1 false)
  %43 = getelementptr inbounds nuw i8, ptr %0, i64 148
  %44 = load i8, ptr %43, align 4, !range !17, !noundef !18
  %45 = trunc nuw i8 %44 to i1
  br i1 %45, label %49, label %46

46:                                               ; preds = %14
  %47 = getelementptr inbounds nuw i8, ptr %4, i64 152
  store i32 99, ptr %47, align 8
  %48 = getelementptr inbounds nuw i8, ptr %4, i64 156
  store i8 1, ptr %48, align 4
  br label %_response_init.exit

49:                                               ; preds = %14
  %50 = getelementptr inbounds nuw i8, ptr %0, i64 140
  %51 = load i32, ptr %50, align 4
  %52 = load i32, ptr getelementptr inbounds nuw (i8, ptr @slurm_conf, i64 1152), align 8
  %.not.i = icmp eq i32 %51, %52
  %53 = load i32, ptr getelementptr inbounds nuw (i8, ptr @slurm_conf, i64 1168), align 8
  %.not32.i = icmp eq i32 %51, %53
  %or.cond.i = select i1 %.not.i, i1 true, i1 %.not32.i
  %54 = getelementptr inbounds nuw i8, ptr %4, i64 152
  %55 = getelementptr inbounds nuw i8, ptr %4, i64 156
  br i1 %or.cond.i, label %57, label %56

56:                                               ; preds = %49
  store i32 %51, ptr %54, align 8
  store i8 1, ptr %55, align 4
  br label %_response_init.exit

57:                                               ; preds = %49
  store i32 -1, ptr %54, align 8
  store i8 1, ptr %55, align 4
  br label %_response_init.exit

_response_init.exit:                              ; preds = %46, %56, %57
  %58 = or i16 %24, 64
  store i16 %58, ptr %25, align 8
  %59 = getelementptr inbounds nuw i8, ptr %0, i64 192
  %60 = load ptr, ptr %59, align 8
  %.not27 = icmp eq ptr %60, null
  br i1 %.not27, label %74, label %61

61:                                               ; preds = %_response_init.exit
  %62 = call i32 @conmgr_queue_write_msg(ptr noundef nonnull %60, ptr noundef nonnull %4) #19
  %.not30 = icmp eq i32 %62, 0
  br i1 %.not30, label %93, label %63

63:                                               ; preds = %61
  %64 = load i64, ptr getelementptr inbounds nuw (i8, ptr @slurm_conf, i64 320), align 8
  %65 = and i64 %64, 1024
  %.not31 = icmp eq i64 %65, 0
  br i1 %.not31, label %93, label %66

66:                                               ; preds = %63
  %67 = call i32 @get_log_level() #19
  %68 = icmp sgt i32 %67, 3
  br i1 %68, label %69, label %93

69:                                               ; preds = %66
  %70 = load ptr, ptr %59, align 8
  %71 = call ptr @conmgr_fd_get_name(ptr noundef %70) #19
  %72 = call ptr @rpc_num2string(i16 noundef zeroext %15) #19
  %73 = call ptr @slurm_strerror(i32 noundef %62) #19
  call void (i32, ptr, ...) @log_var(i32 noundef 4, ptr noundef nonnull @.str.50, ptr noundef nonnull @__func__.send_msg_response, ptr noundef %71, ptr noundef %72, ptr noundef %73) #19
  br label %93

74:                                               ; preds = %_response_init.exit
  %75 = load i32, ptr %5, align 8
  %76 = getelementptr inbounds nuw i8, ptr %4, i64 184
  store i32 %75, ptr %76, align 8
  store ptr %20, ptr %21, align 8
  %77 = call i32 @slurm_send_node_msg(i32 noundef %75, ptr noundef nonnull %4)
  %78 = icmp sgt i32 %77, -1
  br i1 %78, label %93, label %79

79:                                               ; preds = %74
  %80 = tail call ptr @__errno_location() #21
  %81 = load i32, ptr %80, align 4
  %82 = load i64, ptr getelementptr inbounds nuw (i8, ptr @slurm_conf, i64 320), align 8
  %83 = and i64 %82, 1024
  %.not28 = icmp eq i64 %83, 0
  br i1 %.not28, label %93, label %84

84:                                               ; preds = %79
  %85 = call i32 @get_log_level() #19
  %86 = icmp sgt i32 %85, 3
  br i1 %86, label %87, label %93

87:                                               ; preds = %84
  %88 = load ptr, ptr %19, align 8
  %.not29 = icmp eq ptr %88, null
  %89 = getelementptr inbounds nuw i8, ptr %88, i64 60
  %.in = select i1 %.not29, ptr %5, ptr %89
  %90 = load i32, ptr %.in, align 4
  %91 = call ptr @rpc_num2string(i16 noundef zeroext %15) #19
  %92 = call ptr @slurm_strerror(i32 noundef %81) #19
  call void (i32, ptr, ...) @log_var(i32 noundef 4, ptr noundef nonnull @.str.51, ptr noundef nonnull @__func__.send_msg_response, i32 noundef %90, ptr noundef %91, ptr noundef %92) #19
  br label %93

93:                                               ; preds = %79, %87, %84, %74, %61, %66, %69, %63, %11
  %.0 = phi i32 [ 107, %11 ], [ %62, %63 ], [ %62, %69 ], [ %62, %66 ], [ 0, %61 ], [ 0, %74 ], [ %81, %84 ], [ %81, %87 ], [ %81, %79 ]
  call void @llvm.lifetime.end.p0(i64 424, ptr nonnull %4) #19
  ret i32 %.0
}